; Function Attrs: mustprogress nofree nounwind willreturn memory(read, inaccessiblemem: none) uwtable
define noundef zeroext i1 @_ZNK5arrow16KeyValueMetadata8ContainsESt17basic_string_viewIcSt11char_traitsIcEE(ptr noundef nonnull readonly align 8 captures(none) dereferenceable(48) %0, i64 %1, ptr readonly captures(none) %2) local_unnamed_addr #8 align 2 personality ptr @__gxx_personality_v0 {
  %.fr5 = freeze i64 %1
  %4 = getelementptr inbounds nuw i8, ptr %0, i64 8
  %5 = load ptr, ptr %4, align 8, !tbaa !18
  %6 = load ptr, ptr %0, align 8, !tbaa !33
  %.not13.not.i = icmp eq ptr %5, %6
  br i1 %.not13.not.i, label %_ZNK5arrow16KeyValueMetadata7FindKeyESt17basic_string_viewIcSt11char_traitsIcEE.exit, label %.lr.ph.preheader.i

.lr.ph.preheader.i:                               ; preds = %3
  %7 = ptrtoint ptr %5 to i64
  %8 = ptrtoint ptr %6 to i64
  %9 = sub i64 %7, %8
  %10 = ashr exact i64 %9, 5
  %umax.i = tail call i64 @llvm.umax.i64(i64 %10, i64 1)
  %11 = icmp eq i64 %.fr5, 0
  br i1 %11, label %.lr.ph.preheader.i.split.us, label %.lr.ph.i

.lr.ph.preheader.i.split.us:                      ; preds = %.lr.ph.preheader.i
  %invariant.gep = getelementptr i8, ptr %6, i64 8
  br label %.lr.ph.i.us

.lr.ph.i.us:                                      ; preds = %14, %.lr.ph.preheader.i.split.us
  %.01014.i.us = phi i64 [ %15, %14 ], [ 0, %.lr.ph.preheader.i.split.us ]
  %gep = getelementptr %"class.std::__cxx11::basic_string", ptr %invariant.gep, i64 %.01014.i.us
  %12 = load i64, ptr %gep, align 8, !tbaa !27
  %13 = icmp eq i64 %12, 0
  br i1 %13, label %_ZSteqIcSt11char_traitsIcEEbNSt15__type_identityISt17basic_string_viewIT_T0_EE4typeES6_.exit.i, label %14

14:                                               ; preds = %.lr.ph.i.us
  %15 = add nuw i64 %.01014.i.us, 1
  %exitcond.not.i.us = icmp eq i64 %15, %umax.i
  br i1 %exitcond.not.i.us, label %_ZNK5arrow16KeyValueMetadata7FindKeyESt17basic_string_viewIcSt11char_traitsIcEE.exit, label %.lr.ph.i.us, !llvm.loop !55

.lr.ph.i:                                         ; preds = %.lr.ph.preheader.i, %24
  %.01014.i = phi i64 [ %25, %24 ], [ 0, %.lr.ph.preheader.i ]
  %16 = getelementptr inbounds nuw %"class.std::__cxx11::basic_string", ptr %6, i64 %.01014.i
  %17 = getelementptr inbounds nuw i8, ptr %16, i64 8
  %18 = load i64, ptr %17, align 8, !tbaa !27
  %19 = icmp eq i64 %18, %.fr5
  br i1 %19, label %_ZNSt11char_traitsIcE7compareEPKcS2_m.exit.i.i.i, label %24

_ZNSt11char_traitsIcE7compareEPKcS2_m.exit.i.i.i: ; preds = %.lr.ph.i
  %20 = load ptr, ptr %16, align 8, !tbaa !25
  %bcmp.i.i = tail call i32 @bcmp(ptr %20, ptr readonly %2, i64 %.fr5)
  %21 = icmp eq i32 %bcmp.i.i, 0
  br i1 %21, label %_ZSteqIcSt11char_traitsIcEEbNSt15__type_identityISt17basic_string_viewIT_T0_EE4typeES6_.exit.i, label %24

_ZSteqIcSt11char_traitsIcEEbNSt15__type_identityISt17basic_string_viewIT_T0_EE4typeES6_.exit.i: ; preds = %_ZNSt11char_traitsIcE7compareEPKcS2_m.exit.i.i.i, %.lr.ph.i.us
  %.us-phi = phi i64 [ %.01014.i.us, %.lr.ph.i.us ], [ %.01014.i, %_ZNSt11char_traitsIcE7compareEPKcS2_m.exit.i.i.i ]
  %22 = and i64 %.us-phi, 2147483648
  %23 = icmp eq i64 %22, 0
  br label %_ZNK5arrow16KeyValueMetadata7FindKeyESt17basic_string_viewIcSt11char_traitsIcEE.exit

24:                                               ; preds = %_ZNSt11char_traitsIcE7compareEPKcS2_m.exit.i.i.i, %.lr.ph.i
  %25 = add nuw i64 %.01014.i, 1
  %exitcond.not.i = icmp eq i64 %25, %umax.i
  br i1 %exitcond.not.i, label %_ZNK5arrow16KeyValueMetadata7FindKeyESt17basic_string_viewIcSt11char_traitsIcEE.exit, label %.lr.ph.i, !llvm.loop !55

_ZNK5arrow16KeyValueMetadata7FindKeyESt17basic_string_viewIcSt11char_traitsIcEE.exit: ; preds = %24, %14, %3, %_ZSteqIcSt11char_traitsIcEEbNSt15__type_identityISt17basic_string_viewIT_T0_EE4typeES6_.exit.i
  %spec.select.i = phi i1 [ %23, %_ZSteqIcSt11char_traitsIcEEbNSt15__type_identityISt17basic_string_viewIT_T0_EE4typeES6_.exit.i ], [ false, %3 ], [ false, %14 ], [ false, %24 ]
  ret i1 %spec.select.i
}